---
triple:          'arm64-apple-darwin'
binary-path:     '/Volumes/EngData/builds/data-capture-sdk/build/_build/ios/native/libs/sdc/parser/ios/Release-iphoneos/ScanditParser.framework/ScanditParser'
relocations:
  - { offsetInCU: 0x15081, offset: 0x15081, size: 0x8, addend: 0x0, symName: __ZNSt3__120__throw_length_errorB8ue170006EPKc, symObjAddr: 0x9F0, symBinAddr: 0x89F0, symSize: 0x50 }
  - { offsetInCU: 0x1806C, offset: 0x1806C, size: 0x8, addend: 0x0, symName: __ZN6djinni18get_cpp_proxy_implI14SDCParsedFieldN6parser11ParsedFieldEEEPT_RKNSt3__110shared_ptrIT0_EE, symObjAddr: 0xC18, symBinAddr: 0x8C18, symSize: 0xE8 }
  - { offsetInCU: 0x1A800, offset: 0x1A800, size: 0x8, addend: 0x0, symName: '-[SDCParsedData initWithCpp:]', symObjAddr: 0x0, symBinAddr: 0x8000, symSize: 0xD0 }
  - { offsetInCU: 0x1AA95, offset: 0x1AA95, size: 0x8, addend: 0x0, symName: '-[SDCParsedData typeErasedCppImpl]', symObjAddr: 0xD0, symBinAddr: 0x80D0, symSize: 0x24 }
  - { offsetInCU: 0x1AACD, offset: 0x1AACD, size: 0x8, addend: 0x0, symName: '-[SDCParsedData typeErasedCppImpl]', symObjAddr: 0xD0, symBinAddr: 0x80D0, symSize: 0x24 }
  - { offsetInCU: 0x1AAF6, offset: 0x1AAF6, size: 0x8, addend: 0x0, symName: '-[SDCParsedData typeErasedCppImpl]', symObjAddr: 0xD0, symBinAddr: 0x80D0, symSize: 0x24 }
  - { offsetInCU: 0x1AE88, offset: 0x1AE88, size: 0x8, addend: 0x0, symName: '-[SDCParsedData jsonString]', symObjAddr: 0xF4, symBinAddr: 0x80F4, symSize: 0x10C }
  - { offsetInCU: 0x1B589, offset: 0x1B589, size: 0x8, addend: 0x0, symName: __ZNKSt3__112basic_stringIcNS_11char_traitsIcEENS_9allocatorIcEEE20__throw_length_errorB8ue170006Ev, symObjAddr: 0x9DC, symBinAddr: 0x89DC, symSize: 0x14 }
  - { offsetInCU: 0x1B5B3, offset: 0x1B5B3, size: 0x8, addend: 0x0, symName: __ZNSt3__120__throw_length_errorB8ue170006EPKc, symObjAddr: 0x9F0, symBinAddr: 0x89F0, symSize: 0x50 }
  - { offsetInCU: 0x1B5BE, offset: 0x1B5BE, size: 0x8, addend: 0x0, symName: '-[SDCParsedData fieldsByName]', symObjAddr: 0x200, symBinAddr: 0x8200, symSize: 0x194 }
  - { offsetInCU: 0x1B8BC, offset: 0x1B8BC, size: 0x8, addend: 0x0, symName: '-[SDCParsedData fields]', symObjAddr: 0x394, symBinAddr: 0x8394, symSize: 0x1C0 }
  - { offsetInCU: 0x1BDF5, offset: 0x1BDF5, size: 0x8, addend: 0x0, symName: __ZNSt3__16vectorINS_10shared_ptrIN6parser11ParsedFieldEEENS_9allocatorIS4_EEEC2ERKS7_, symObjAddr: 0xB44, symBinAddr: 0x8B44, symSize: 0xC0 }
  - { offsetInCU: 0x1C19A, offset: 0x1C19A, size: 0x8, addend: 0x0, symName: __ZNSt3__110shared_ptrIN6parser11ParsedFieldEED1B8ue170006Ev, symObjAddr: 0x554, symBinAddr: 0x8554, symSize: 0x68 }
  - { offsetInCU: 0x1C238, offset: 0x1C238, size: 0x8, addend: 0x0, symName: __ZNSt3__16vectorINS_10shared_ptrIN6parser11ParsedFieldEEENS_9allocatorIS4_EEED1B8ue170006Ev, symObjAddr: 0x5BC, symBinAddr: 0x85BC, symSize: 0x98 }
  - { offsetInCU: 0x1C647, offset: 0x1C647, size: 0x8, addend: 0x0, symName: '-[SDCParsedData fieldsWithIssues]', symObjAddr: 0x654, symBinAddr: 0x8654, symSize: 0x25C }
  - { offsetInCU: 0x1CE40, offset: 0x1CE40, size: 0x8, addend: 0x0, symName: __ZNSt3__16vectorINS_10shared_ptrIN6parser11ParserIssueEEENS_9allocatorIS4_EEEC2ERKS7_, symObjAddr: 0xA70, symBinAddr: 0x8A70, symSize: 0xC0 }
  - { offsetInCU: 0x1D2CD, offset: 0x1D2CD, size: 0x8, addend: 0x0, symName: '-[SDCParsedData .cxx_destruct]', symObjAddr: 0x8B0, symBinAddr: 0x88B0, symSize: 0xE4 }
  - { offsetInCU: 0x1D5DD, offset: 0x1D5DD, size: 0x8, addend: 0x0, symName: '-[SDCParsedData .cxx_construct]', symObjAddr: 0x994, symBinAddr: 0x8994, symSize: 0x48 }
  - { offsetInCU: 0x1D745, offset: 0x1D745, size: 0x8, addend: 0x0, symName: __ZNSt12length_errorC1B8ue170006EPKc, symObjAddr: 0xA40, symBinAddr: 0x8A40, symSize: 0x24 }
  - { offsetInCU: 0x1DA47, offset: 0x1DA47, size: 0x8, addend: 0x0, symName: __ZNKSt3__16vectorINS_10shared_ptrIN6parser11ParserIssueEEENS_9allocatorIS4_EEE20__throw_length_errorB8ue170006Ev, symObjAddr: 0xB30, symBinAddr: 0x8B30, symSize: 0x14 }
  - { offsetInCU: 0x1DA71, offset: 0x1DA71, size: 0x8, addend: 0x0, symName: __ZNSt3__16vectorINS_10shared_ptrIN6parser11ParsedFieldEEENS_9allocatorIS4_EEEC2ERKS7_, symObjAddr: 0xB44, symBinAddr: 0x8B44, symSize: 0xC0 }
  - { offsetInCU: 0x1DA7C, offset: 0x1DA7C, size: 0x8, addend: 0x0, symName: __ZNSt3__16vectorINS_10shared_ptrIN6parser11ParserIssueEEENS_9allocatorIS4_EEEC2ERKS7_.cold.1, symObjAddr: 0xE48, symBinAddr: 0xE5174, symSize: 0x60 }
  - { offsetInCU: 0x1DED4, offset: 0x1DED4, size: 0x8, addend: 0x0, symName: __ZNKSt3__16vectorINS_10shared_ptrIN6parser11ParsedFieldEEENS_9allocatorIS4_EEE20__throw_length_errorB8ue170006Ev, symObjAddr: 0xC04, symBinAddr: 0x8C04, symSize: 0x14 }
  - { offsetInCU: 0x1DEFE, offset: 0x1DEFE, size: 0x8, addend: 0x0, symName: __ZN6djinni18get_cpp_proxy_implI14SDCParsedFieldN6parser11ParsedFieldEEEPT_RKNSt3__110shared_ptrIT0_EE, symObjAddr: 0xC18, symBinAddr: 0x8C18, symSize: 0xE8 }
  - { offsetInCU: 0x1DF09, offset: 0x1DF09, size: 0x8, addend: 0x0, symName: __ZNSt3__16vectorINS_10shared_ptrIN6parser11ParsedFieldEEENS_9allocatorIS4_EEEC2ERKS7_.cold.1, symObjAddr: 0xEA8, symBinAddr: 0xE51D4, symSize: 0x60 }
  - { offsetInCU: 0x1E1AF, offset: 0x1E1AF, size: 0x8, addend: 0x0, symName: __ZNSt3__110shared_ptrIvED1B8ue170006Ev, symObjAddr: 0xD00, symBinAddr: 0x8D00, symSize: 0x68 }
  - { offsetInCU: 0x1E3AB, offset: 0x1E3AB, size: 0x8, addend: 0x0, symName: __ZZN6djinni18get_cpp_proxy_implI14SDCParsedFieldN6parser11ParsedFieldEEEPT_RKNSt3__110shared_ptrIT0_EEENUlRKNS7_IvEEE_8__invokeESE_, symObjAddr: 0xD68, symBinAddr: 0x8D68, symSize: 0xE0 }
  - { offsetInCU: 0x1E65C, offset: 0x1E65C, size: 0x8, addend: 0x0, symName: __ZZN6djinni18get_cpp_proxy_implI14SDCParsedFieldN6parser11ParsedFieldEEEPT_RKNSt3__110shared_ptrIT0_EEENUlRKNS7_IvEEE_8__invokeESE_.cold.1, symObjAddr: 0xF08, symBinAddr: 0xE5234, symSize: 0x44 }
  - { offsetInCU: 0x1E703, offset: 0x1E703, size: 0x8, addend: 0x0, symName: _OUTLINED_FUNCTION_0, symObjAddr: 0xF4C, symBinAddr: 0x8E48, symSize: 0x10 }
  - { offsetInCU: 0x1E71B, offset: 0x1E71B, size: 0x8, addend: 0x0, symName: _OUTLINED_FUNCTION_1, symObjAddr: 0xF5C, symBinAddr: 0x8E58, symSize: 0x10 }
  - { offsetInCU: 0x1E733, offset: 0x1E733, size: 0x8, addend: 0x0, symName: _OUTLINED_FUNCTION_2, symObjAddr: 0xF6C, symBinAddr: 0x8E68, symSize: 0x10 }
  - { offsetInCU: 0x1E74B, offset: 0x1E74B, size: 0x8, addend: 0x0, symName: _OUTLINED_FUNCTION_3, symObjAddr: 0xF7C, symBinAddr: 0x8E78, symSize: 0x18 }
  - { offsetInCU: 0xDF5F, offset: 0x2C750, size: 0x8, addend: 0x0, symName: __ZN6djinni18get_cpp_proxy_implI14SDCParserIssueN6parser11ParserIssueEEEPT_RKNSt3__110shared_ptrIT0_EE, symObjAddr: 0xAA8, symBinAddr: 0x97CC, symSize: 0xE8 }
  - { offsetInCU: 0x104B0, offset: 0x2ECA1, size: 0x8, addend: 0x0, symName: '-[SDCParsedField initWithCpp:]', symObjAddr: 0x4, symBinAddr: 0x8E90, symSize: 0xD0 }
  - { offsetInCU: 0x10745, offset: 0x2EF36, size: 0x8, addend: 0x0, symName: '-[SDCParsedField typeErasedCppImpl]', symObjAddr: 0xD4, symBinAddr: 0x8F60, symSize: 0x24 }
  - { offsetInCU: 0x1077D, offset: 0x2EF6E, size: 0x8, addend: 0x0, symName: '-[SDCParsedField typeErasedCppImpl]', symObjAddr: 0xD4, symBinAddr: 0x8F60, symSize: 0x24 }
  - { offsetInCU: 0x107A6, offset: 0x2EF97, size: 0x8, addend: 0x0, symName: '-[SDCParsedField typeErasedCppImpl]', symObjAddr: 0xD4, symBinAddr: 0x8F60, symSize: 0x24 }
  - { offsetInCU: 0x10AFB, offset: 0x2F2EC, size: 0x8, addend: 0x0, symName: '-[SDCParsedField name]', symObjAddr: 0xF8, symBinAddr: 0x8F84, symSize: 0x10C }
  - { offsetInCU: 0x111DD, offset: 0x2F9CE, size: 0x8, addend: 0x0, symName: '-[SDCParsedField parsed]', symObjAddr: 0x204, symBinAddr: 0x9090, symSize: 0x114 }
  - { offsetInCU: 0x114E6, offset: 0x2FCD7, size: 0x8, addend: 0x0, symName: '-[SDCParsedField rawString]', symObjAddr: 0x318, symBinAddr: 0x91A4, symSize: 0x10C }
  - { offsetInCU: 0x11D38, offset: 0x30529, size: 0x8, addend: 0x0, symName: '-[SDCParsedField issues]', symObjAddr: 0x424, symBinAddr: 0x92B0, symSize: 0x164 }
  - { offsetInCU: 0x12167, offset: 0x30958, size: 0x8, addend: 0x0, symName: __ZNSt3__16vectorINS_12basic_stringIcNS_11char_traitsIcEENS_9allocatorIcEEEENS4_IS6_EEED1B8ue170006Ev, symObjAddr: 0x588, symBinAddr: 0x9414, symSize: 0x74 }
  - { offsetInCU: 0x12680, offset: 0x30E71, size: 0x8, addend: 0x0, symName: '-[SDCParsedField warnings]', symObjAddr: 0x5FC, symBinAddr: 0x9488, symSize: 0x180 }
  - { offsetInCU: 0x12CBE, offset: 0x314AF, size: 0x8, addend: 0x0, symName: __ZNSt3__16vectorINS_10shared_ptrIN6parser11ParserIssueEEENS_9allocatorIS4_EEED1B8ue170006Ev, symObjAddr: 0x77C, symBinAddr: 0x9608, symSize: 0x98 }
  - { offsetInCU: 0x12FE3, offset: 0x317D4, size: 0x8, addend: 0x0, symName: '-[SDCParsedField .cxx_destruct]', symObjAddr: 0x814, symBinAddr: 0x96A0, symSize: 0xE4 }
  - { offsetInCU: 0x132F3, offset: 0x31AE4, size: 0x8, addend: 0x0, symName: '-[SDCParsedField .cxx_construct]', symObjAddr: 0x8F8, symBinAddr: 0x9784, symSize: 0x48 }
  - { offsetInCU: 0x1374E, offset: 0x31F3F, size: 0x8, addend: 0x0, symName: __ZN6djinni18get_cpp_proxy_implI14SDCParserIssueN6parser11ParserIssueEEEPT_RKNSt3__110shared_ptrIT0_EE, symObjAddr: 0xAA8, symBinAddr: 0x97CC, symSize: 0xE8 }
  - { offsetInCU: 0x13AE8, offset: 0x322D9, size: 0x8, addend: 0x0, symName: __ZZN6djinni18get_cpp_proxy_implI14SDCParserIssueN6parser11ParserIssueEEEPT_RKNSt3__110shared_ptrIT0_EEENUlRKNS7_IvEEE_8__invokeESE_, symObjAddr: 0xBF8, symBinAddr: 0x98B4, symSize: 0xE0 }
  - { offsetInCU: 0x13D99, offset: 0x3258A, size: 0x8, addend: 0x0, symName: __ZZN6djinni18get_cpp_proxy_implI14SDCParserIssueN6parser11ParserIssueEEEPT_RKNSt3__110shared_ptrIT0_EEENUlRKNS7_IvEEE_8__invokeESE_.cold.1, symObjAddr: 0xD68, symBinAddr: 0xE5278, symSize: 0x4C }
  - { offsetInCU: 0x5C93, offset: 0x3831D, size: 0x8, addend: 0x0, symName: __ZN3sdc4core2toIU8__strongP8NSStringN6parser28ParserIssueAdditionalInfoKeyEEET_RKT0_, symObjAddr: 0x6C, symBinAddr: 0x9A00, symSize: 0x30 }
  - { offsetInCU: 0x5CB2, offset: 0x3833C, size: 0x8, addend: 0x0, symName: __ZN3sdc4core2toI19SDCParserDataFormatNS_16ParserDataFormatEEET_RKT0_, symObjAddr: 0xC8, symBinAddr: 0x9A30, symSize: 0x10C }
  - { offsetInCU: 0x7203, offset: 0x3988D, size: 0x8, addend: 0x0, symName: __ZN6parser32allParserIssueAdditionalInfoKeysEv, symObjAddr: 0x1924, symBinAddr: 0xB28C, symSize: 0x12C }
  - { offsetInCU: 0x329AB, offset: 0x65035, size: 0x8, addend: 0x0, symName: __ZNSt3__120__throw_out_of_rangeB8ue170006EPKc, symObjAddr: 0x27E8, symBinAddr: 0xC0BC, symSize: 0x50 }
  - { offsetInCU: 0x32F12, offset: 0x6559C, size: 0x8, addend: 0x0, symName: __ZSt28__throw_bad_array_new_lengthB8ue170006v, symObjAddr: 0x1E1C, symBinAddr: 0xB778, symSize: 0x28 }
  - { offsetInCU: 0x39965, offset: 0x6BFEF, size: 0x8, addend: 0x0, symName: __ZN6djinni18get_cpp_proxy_implI9SDCParserN3sdc6ParserEEEPT_RKNSt3__110shared_ptrIT0_EE, symObjAddr: 0x285C, symBinAddr: 0xC130, symSize: 0xE8 }
  - { offsetInCU: 0x39BA2, offset: 0x6C22C, size: 0x8, addend: 0x0, symName: __ZN6djinni18get_cpp_proxy_implI13SDCParsedDataN6parser10ParsedDataEEEPT_RKNSt3__110shared_ptrIT0_EE, symObjAddr: 0x2A8C, symBinAddr: 0xC2F8, symSize: 0xE8 }
  - { offsetInCU: 0x3BDD9, offset: 0x6E463, size: 0x8, addend: 0x0, symName: __ZL10initializev, symObjAddr: 0x0, symBinAddr: 0x9994, symSize: 0x6C }
  - { offsetInCU: 0x3BE09, offset: 0x6E493, size: 0x8, addend: 0x0, symName: __ZNSt3__112basic_stringIcNS_11char_traitsIcEENS_9allocatorIcEEEC1B8ue170006ILi0EEEPKc, symObjAddr: 0x1D4, symBinAddr: 0x9B3C, symSize: 0xA0 }
  - { offsetInCU: 0x3C1CB, offset: 0x6E855, size: 0x8, addend: 0x0, symName: '-[SDCParser initWithCpp:]', symObjAddr: 0x274, symBinAddr: 0x9BDC, symSize: 0xD0 }
  - { offsetInCU: 0x3C543, offset: 0x6EBCD, size: 0x8, addend: 0x0, symName: '-[SDCParser initWithCpp:]', symObjAddr: 0x274, symBinAddr: 0x9BDC, symSize: 0xD0 }
  - { offsetInCU: 0x3C7D8, offset: 0x6EE62, size: 0x8, addend: 0x0, symName: '-[SDCParser typeErasedCppImpl]', symObjAddr: 0x344, symBinAddr: 0x9CAC, symSize: 0x24 }
  - { offsetInCU: 0x3C80F, offset: 0x6EE99, size: 0x8, addend: 0x0, symName: '-[SDCParser typeErasedCppImpl]', symObjAddr: 0x344, symBinAddr: 0x9CAC, symSize: 0x24 }
  - { offsetInCU: 0x3C838, offset: 0x6EEC2, size: 0x8, addend: 0x0, symName: '-[SDCParser typeErasedCppImpl]', symObjAddr: 0x344, symBinAddr: 0x9CAC, symSize: 0x24 }
  - { offsetInCU: 0x3CA3C, offset: 0x6F0C6, size: 0x8, addend: 0x0, symName: '+[SDCParser parserForContext:format:error:]', symObjAddr: 0x368, symBinAddr: 0x9CD0, symSize: 0x210 }
  - { offsetInCU: 0x3D09B, offset: 0x6F725, size: 0x8, addend: 0x0, symName: __ZNK3bar6resultINSt3__110shared_ptrIN3sdc6ParserEEENS1_12basic_stringIcNS1_11char_traitsIcEENS1_9allocatorIcEEEEE5errorEv, symObjAddr: 0x6F8, symBinAddr: 0xA060, symSize: 0x12C }
  - { offsetInCU: 0x3D630, offset: 0x6FCBA, size: 0x8, addend: 0x0, symName: __ZN12_GLOBAL__N_116buildParserErrorERKNSt3__112basic_stringIcNS0_11char_traitsIcEENS0_9allocatorIcEEEE, symObjAddr: 0x5E0, symBinAddr: 0x9F48, symSize: 0x118 }
  - { offsetInCU: 0x3D783, offset: 0x6FE0D, size: 0x8, addend: 0x0, symName: __ZNSt3__110shared_ptrIN3bar6resultINS0_IN3sdc6ParserEEENS_12basic_stringIcNS_11char_traitsIcEENS_9allocatorIcEEEEEEED1B8ue170006Ev, symObjAddr: 0x824, symBinAddr: 0xA18C, symSize: 0x68 }
  - { offsetInCU: 0x3D821, offset: 0x6FEAB, size: 0x8, addend: 0x0, symName: __ZNSt3__110shared_ptrIN3sdc4core18DataCaptureContextEED1B8ue170006Ev, symObjAddr: 0x578, symBinAddr: 0x9EE0, symSize: 0x68 }
  - { offsetInCU: 0x3D9AD, offset: 0x70037, size: 0x8, addend: 0x0, symName: '-[SDCParser parseString:error:]', symObjAddr: 0x88C, symBinAddr: 0xA1F4, symSize: 0x118 }
  - { offsetInCU: 0x3E65E, offset: 0x70CE8, size: 0x8, addend: 0x0, symName: '-[SDCParser parseRawData:error:]', symObjAddr: 0x9A4, symBinAddr: 0xA30C, symSize: 0x6B8 }
  - { offsetInCU: 0x40654, offset: 0x72CDE, size: 0x8, addend: 0x0, symName: __ZNSt3__113unordered_mapIN6parser28ParserIssueAdditionalInfoKeyENS_12basic_stringIcNS_11char_traitsIcEENS_9allocatorIcEEEENS_4hashIS2_EENS_8equal_toIS2_EENS6_INS_4pairIKS2_S8_EEEEEC2ERKSH_, symObjAddr: 0x1FF0, symBinAddr: 0xB94C, symSize: 0x130 }
  - { offsetInCU: 0x40A2C, offset: 0x730B6, size: 0x8, addend: 0x0, symName: __ZNSt3__113unordered_mapIN6parser28ParserIssueAdditionalInfoKeyENS_12basic_stringIcNS_11char_traitsIcEENS_9allocatorIcEEEENS_4hashIS2_EENS_8equal_toIS2_EENS6_INS_4pairIKS2_S8_EEEEED1B8ue170006Ev, symObjAddr: 0x1A50, symBinAddr: 0xB3B8, symSize: 0x68 }
  - { offsetInCU: 0x40EBF, offset: 0x73549, size: 0x8, addend: 0x0, symName: __ZNSt3__113unordered_setIN6parser28ParserIssueAdditionalInfoKeyENS_4hashIS2_EENS_8equal_toIS2_EENS_9allocatorIS2_EEED1B8ue170006Ev, symObjAddr: 0x1AB8, symBinAddr: 0xB420, symSize: 0x48 }
  - { offsetInCU: 0x411C4, offset: 0x7384E, size: 0x8, addend: 0x0, symName: __ZNSt3__110shared_ptrIN6parser11ParserIssueEED1B8ue170006Ev, symObjAddr: 0x105C, symBinAddr: 0xA9C4, symSize: 0x68 }
  - { offsetInCU: 0x41262, offset: 0x738EC, size: 0x8, addend: 0x0, symName: __ZNSt3__110shared_ptrIN6parser6resultINS0_INS1_10ParsedDataEEENS0_INS1_11ParserIssueEEEEEED1B8ue170006Ev, symObjAddr: 0x10C4, symBinAddr: 0xAA2C, symSize: 0x68 }
  - { offsetInCU: 0x4136F, offset: 0x739F9, size: 0x8, addend: 0x0, symName: '-[SDCParser setOptions:error:]', symObjAddr: 0x112C, symBinAddr: 0xAA94, symSize: 0x228 }
  - { offsetInCU: 0x41B92, offset: 0x7421C, size: 0x8, addend: 0x0, symName: __ZNK3bar6resultIvNSt3__112basic_stringIcNS1_11char_traitsIcEENS1_9allocatorIcEEEEE5errorEv, symObjAddr: 0x1354, symBinAddr: 0xACBC, symSize: 0x130 }
  - { offsetInCU: 0x42113, offset: 0x7479D, size: 0x8, addend: 0x0, symName: __ZNSt3__110shared_ptrIN3bar6resultIvNS_12basic_stringIcNS_11char_traitsIcEENS_9allocatorIcEEEEEEED1B8ue170006Ev, symObjAddr: 0x1484, symBinAddr: 0xADEC, symSize: 0x68 }
  - { offsetInCU: 0x421B1, offset: 0x7483B, size: 0x8, addend: 0x0, symName: '-[SDCParser componentId]', symObjAddr: 0x14EC, symBinAddr: 0xAE54, symSize: 0xA4 }
  - { offsetInCU: 0x424A2, offset: 0x74B2C, size: 0x8, addend: 0x0, symName: '-[SDCParser cppImpl]', symObjAddr: 0x1590, symBinAddr: 0xAEF8, symSize: 0x8 }
  - { offsetInCU: 0x424DB, offset: 0x74B65, size: 0x8, addend: 0x0, symName: '-[SDCParser cppImpl]', symObjAddr: 0x1590, symBinAddr: 0xAEF8, symSize: 0x8 }
  - { offsetInCU: 0x424F9, offset: 0x74B83, size: 0x8, addend: 0x0, symName: '-[SDCParser updateFromJSONString:error:]', symObjAddr: 0x1598, symBinAddr: 0xAF00, symSize: 0x114 }
  - { offsetInCU: 0x426D0, offset: 0x74D5A, size: 0x8, addend: 0x0, symName: '+[SDCParser parserFromJSONString:context:error:]', symObjAddr: 0x16AC, symBinAddr: 0xB014, symSize: 0x14C }
  - { offsetInCU: 0x428AF, offset: 0x74F39, size: 0x8, addend: 0x0, symName: '-[SDCParser .cxx_destruct]', symObjAddr: 0x17F8, symBinAddr: 0xB160, symSize: 0xE4 }
  - { offsetInCU: 0x42BBF, offset: 0x75249, size: 0x8, addend: 0x0, symName: '-[SDCParser .cxx_construct]', symObjAddr: 0x18DC, symBinAddr: 0xB244, symSize: 0x48 }
  - { offsetInCU: 0x42F69, offset: 0x755F3, size: 0x8, addend: 0x0, symName: __ZNSt3__112__hash_tableIN6parser28ParserIssueAdditionalInfoKeyENS_4hashIS2_EENS_8equal_toIS2_EENS_9allocatorIS2_EEE25__emplace_unique_key_argsIS2_JRKS2_EEENS_4pairINS_15__hash_iteratorIPNS_11__hash_nodeIS2_PvEEEEbEERKT_DpOT0_, symObjAddr: 0x1B0C, symBinAddr: 0xB468, symSize: 0x310 }
  - { offsetInCU: 0x4359D, offset: 0x75C27, size: 0x8, addend: 0x0, symName: __ZN6parser32allParserIssueAdditionalInfoKeysEv.cold.1, symObjAddr: 0x2C54, symBinAddr: 0xE52C4, symSize: 0x24 }
  - { offsetInCU: 0x4399C, offset: 0x76026, size: 0x8, addend: 0x0, symName: __ZNSt3__112__hash_tableIN6parser28ParserIssueAdditionalInfoKeyENS_4hashIS2_EENS_8equal_toIS2_EENS_9allocatorIS2_EEE11__do_rehashILb1EEEvm, symObjAddr: 0x1E44, symBinAddr: 0xB7A0, symSize: 0x1AC }
  - { offsetInCU: 0x43E43, offset: 0x764CD, size: 0x8, addend: 0x0, symName: __ZNSt3__113unordered_mapIN6parser28ParserIssueAdditionalInfoKeyENS_12basic_stringIcNS_11char_traitsIcEENS_9allocatorIcEEEENS_4hashIS2_EENS_8equal_toIS2_EENS6_INS_4pairIKS2_S8_EEEEEC2ERKSH_, symObjAddr: 0x1FF0, symBinAddr: 0xB94C, symSize: 0x130 }
  - { offsetInCU: 0x44200, offset: 0x7688A, size: 0x8, addend: 0x0, symName: __ZNSt3__112__hash_tableINS_17__hash_value_typeIN6parser28ParserIssueAdditionalInfoKeyENS_12basic_stringIcNS_11char_traitsIcEENS_9allocatorIcEEEEEENS_22__unordered_map_hasherIS3_SA_NS_4hashIS3_EENS_8equal_toIS3_EELb1EEENS_21__unordered_map_equalIS3_SA_SF_SD_Lb1EEENS7_ISA_EEE11__do_rehashILb1EEEvm, symObjAddr: 0x2188, symBinAddr: 0xBAE4, symSize: 0x1AC }
  - { offsetInCU: 0x446A7, offset: 0x76D31, size: 0x8, addend: 0x0, symName: __ZNSt3__112__hash_tableINS_17__hash_value_typeIN6parser28ParserIssueAdditionalInfoKeyENS_12basic_stringIcNS_11char_traitsIcEENS_9allocatorIcEEEEEENS_22__unordered_map_hasherIS3_SA_NS_4hashIS3_EENS_8equal_toIS3_EELb1EEENS_21__unordered_map_equalIS3_SA_SF_SD_Lb1EEENS7_ISA_EEE25__emplace_unique_key_argsIS3_JRKNS_4pairIKS3_S9_EEEEENSM_INS_15__hash_iteratorIPNS_11__hash_nodeISA_PvEEEEbEERKT_DpOT0_, symObjAddr: 0x2334, symBinAddr: 0xBC90, symSize: 0x3E0 }
  - { offsetInCU: 0x446BC, offset: 0x76D46, size: 0x8, addend: 0x0, symName: __ZNSt3__112__hash_tableINS_17__hash_value_typeIN6parser28ParserIssueAdditionalInfoKeyENS_12basic_stringIcNS_11char_traitsIcEENS_9allocatorIcEEEEEENS_22__unordered_map_hasherIS3_SA_NS_4hashIS3_EENS_8equal_toIS3_EELb1EEENS_21__unordered_map_equalIS3_SA_SF_SD_Lb1EEENS7_ISA_EEE25__emplace_unique_key_argsIS3_JRKNS_4pairIKS3_S9_EEEEENSM_INS_15__hash_iteratorIPNS_11__hash_nodeISA_PvEEEEbEERKT_DpOT0_, symObjAddr: 0x2334, symBinAddr: 0xBC90, symSize: 0x3E0 }
  - { offsetInCU: 0x45120, offset: 0x777AA, size: 0x8, addend: 0x0, symName: __ZNSt3__112__hash_tableINS_17__hash_value_typeIN6parser28ParserIssueAdditionalInfoKeyENS_12basic_stringIcNS_11char_traitsIcEENS_9allocatorIcEEEEEENS_22__unordered_map_hasherIS3_SA_NS_4hashIS3_EENS_8equal_toIS3_EELb1EEENS_21__unordered_map_equalIS3_SA_SF_SD_Lb1EEENS7_ISA_EEED1Ev, symObjAddr: 0x2120, symBinAddr: 0xBA7C, symSize: 0x68 }
  - { offsetInCU: 0x45932, offset: 0x77FBC, size: 0x8, addend: 0x0, symName: __ZNSt3__110unique_ptrINS_11__hash_nodeINS_17__hash_value_typeIN6parser28ParserIssueAdditionalInfoKeyENS_12basic_stringIcNS_11char_traitsIcEENS_9allocatorIcEEEEEEPvEENS_22__hash_node_destructorINS8_ISD_EEEEED1B8ue170006Ev, symObjAddr: 0x2714, symBinAddr: 0xC070, symSize: 0x4C }
  - { offsetInCU: 0x45D11, offset: 0x7839B, size: 0x8, addend: 0x0, symName: __ZNSt12out_of_rangeC1B8ue170006EPKc, symObjAddr: 0x2838, symBinAddr: 0xC10C, symSize: 0x24 }
  - { offsetInCU: 0x45F93, offset: 0x7861D, size: 0x8, addend: 0x0, symName: __ZZN6djinni18get_cpp_proxy_implI9SDCParserN3sdc6ParserEEEPT_RKNSt3__110shared_ptrIT0_EEENUlRKNS7_IvEEE_8__invokeESE_, symObjAddr: 0x29AC, symBinAddr: 0xC218, symSize: 0xE0 }
  - { offsetInCU: 0x46244, offset: 0x788CE, size: 0x8, addend: 0x0, symName: __ZZN6djinni18get_cpp_proxy_implI9SDCParserN3sdc6ParserEEEPT_RKNSt3__110shared_ptrIT0_EEENUlRKNS7_IvEEE_8__invokeESE_.cold.1, symObjAddr: 0x2C78, symBinAddr: 0xE52E8, symSize: 0x40 }
  - { offsetInCU: 0x464BC, offset: 0x78B46, size: 0x8, addend: 0x0, symName: __ZZN6djinni18get_cpp_proxy_implI13SDCParsedDataN6parser10ParsedDataEEEPT_RKNSt3__110shared_ptrIT0_EEENUlRKNS7_IvEEE_8__invokeESE_, symObjAddr: 0x2B74, symBinAddr: 0xC3E0, symSize: 0xE0 }
  - { offsetInCU: 0x4676D, offset: 0x78DF7, size: 0x8, addend: 0x0, symName: __ZZN6djinni18get_cpp_proxy_implI13SDCParsedDataN6parser10ParsedDataEEEPT_RKNSt3__110shared_ptrIT0_EEENUlRKNS7_IvEEE_8__invokeESE_.cold.1, symObjAddr: 0x2CB8, symBinAddr: 0xE5328, symSize: 0x40 }
  - { offsetInCU: 0x46814, offset: 0x78E9E, size: 0x8, addend: 0x0, symName: _OUTLINED_FUNCTION_0, symObjAddr: 0x2CF8, symBinAddr: 0xC4C0, symSize: 0x10 }
  - { offsetInCU: 0x335, offset: 0x79944, size: 0x8, addend: 0x0, symName: __ZN3sdc4core31nsarrayWithCppSequenceContainerINSt3__16vectorINS2_12basic_stringIcNS2_11char_traitsIcEENS2_9allocatorIcEEEENS7_IS9_EEEEU8__strongU13block_pointerFP8NSStringS9_EEEP7NSArrayRKT_OT0_NS2_17basic_string_viewIcS6_EE, symObjAddr: 0x28D4, symBinAddr: 0xE95C, symSize: 0x1D0 }
  - { offsetInCU: 0xA439, offset: 0x83A48, size: 0x8, addend: 0x0, symName: __ZN6djinni13set_cpp_proxyIU8__strongP21SDCParserDeserializerNSt3__110shared_ptrIN3sdc18ParserDeserializerEEEEEvRKT0_T_b, symObjAddr: 0x36C, symBinAddr: 0xC83C, symSize: 0x104 }
  - { offsetInCU: 0xA814, offset: 0x83E23, size: 0x8, addend: 0x0, symName: __ZN6djinni18get_cpp_proxy_implI21SDCDataCaptureContextN3sdc4core18DataCaptureContextEEEPT_RKNSt3__110shared_ptrIT0_EE, symObjAddr: 0x1E74, symBinAddr: 0xDF04, symSize: 0xE8 }
  - { offsetInCU: 0xAA82, offset: 0x84091, size: 0x8, addend: 0x0, symName: __ZN6djinni18get_cpp_proxy_implI21SDCParserDeserializerN3sdc18ParserDeserializerEEEPT_RKNSt3__110shared_ptrIT0_EE, symObjAddr: 0x270C, symBinAddr: 0xE794, symSize: 0xE8 }
  - { offsetInCU: 0xDA17, offset: 0x87026, size: 0x8, addend: 0x0, symName: '-[SDCParserDeserializer init]', symObjAddr: 0x0, symBinAddr: 0xC4D0, symSize: 0x304 }
  - { offsetInCU: 0xE673, offset: 0x87C82, size: 0x8, addend: 0x0, symName: __ZNSt3__110shared_ptrIN3sdc18ParserDeserializerEED1B8ue170006Ev, symObjAddr: 0x304, symBinAddr: 0xC7D4, symSize: 0x68 }
  - { offsetInCU: 0xE711, offset: 0x87D20, size: 0x8, addend: 0x0, symName: __ZNSt3__110shared_ptrIN12_GLOBAL__N_128ParserDeserializerHelperImplEED1B8ue170006Ev, symObjAddr: 0x470, symBinAddr: 0xC940, symSize: 0x68 }
  - { offsetInCU: 0xE966, offset: 0x87F75, size: 0x8, addend: 0x0, symName: '-[SDCParserDeserializer initWithCpp:]', symObjAddr: 0x4D8, symBinAddr: 0xC9A8, symSize: 0xD0 }
  - { offsetInCU: 0xEBB1, offset: 0x881C0, size: 0x8, addend: 0x0, symName: '-[SDCParserDeserializer cppImpl]', symObjAddr: 0x5A8, symBinAddr: 0xCA78, symSize: 0x8 }
  - { offsetInCU: 0xEBEA, offset: 0x881F9, size: 0x8, addend: 0x0, symName: '-[SDCParserDeserializer cppImpl]', symObjAddr: 0x5A8, symBinAddr: 0xCA78, symSize: 0x8 }
  - { offsetInCU: 0xEC08, offset: 0x88217, size: 0x8, addend: 0x0, symName: '-[SDCParserDeserializer typeErasedCppImpl]', symObjAddr: 0x5B0, symBinAddr: 0xCA80, symSize: 0x24 }
  - { offsetInCU: 0xEC3F, offset: 0x8824E, size: 0x8, addend: 0x0, symName: '-[SDCParserDeserializer typeErasedCppImpl]', symObjAddr: 0x5B0, symBinAddr: 0xCA80, symSize: 0x24 }
  - { offsetInCU: 0xEC68, offset: 0x88277, size: 0x8, addend: 0x0, symName: '-[SDCParserDeserializer typeErasedCppImpl]', symObjAddr: 0x5B0, symBinAddr: 0xCA80, symSize: 0x24 }
  - { offsetInCU: 0xEF2D, offset: 0x8853C, size: 0x8, addend: 0x0, symName: '-[SDCParserDeserializer parserFromJSONString:context:error:]', symObjAddr: 0x5D4, symBinAddr: 0xCAA4, symSize: 0x3F8 }
  - { offsetInCU: 0xFA4D, offset: 0x8905C, size: 0x8, addend: 0x0, symName: __ZN3bar6resultINSt3__110shared_ptrIN3sdc4core9JsonValueEEENS1_12basic_stringIcNS1_11char_traitsIcEENS1_9allocatorIcEEEEE14value_or_throwEv, symObjAddr: 0xA6C, symBinAddr: 0xCE9C, symSize: 0x108 }
  - { offsetInCU: 0xFFFA, offset: 0x89609, size: 0x8, addend: 0x0, symName: __ZN3bar6resultINSt3__110shared_ptrIN3sdc4core9JsonValueEEENS1_12basic_stringIcNS1_11char_traitsIcEENS1_9allocatorIcEEEEE14value_or_throwEv, symObjAddr: 0xA6C, symBinAddr: 0xCE9C, symSize: 0x108 }
  - { offsetInCU: 0x10011, offset: 0x89620, size: 0x8, addend: 0x0, symName: __ZNSt3__110shared_ptrIN3sdc6ParserEED1B8ue170006Ev, symObjAddr: 0xCD4, symBinAddr: 0xD09C, symSize: 0x68 }
  - { offsetInCU: 0x100AF, offset: 0x896BE, size: 0x8, addend: 0x0, symName: __ZNSt3__110shared_ptrIN3sdc4core9JsonValueEED1B8ue170006Ev, symObjAddr: 0xC04, symBinAddr: 0xD034, symSize: 0x68 }
  - { offsetInCU: 0x101B2, offset: 0x897C1, size: 0x8, addend: 0x0, symName: __ZN3bar6resultINSt3__110shared_ptrIN3sdc4core9JsonValueEEENS1_12basic_stringIcNS1_11char_traitsIcEENS1_9allocatorIcEEEEED1Ev, symObjAddr: 0xB74, symBinAddr: 0xCFA4, symSize: 0x90 }
  - { offsetInCU: 0x10692, offset: 0x89CA1, size: 0x8, addend: 0x0, symName: __ZNK3bar6resultINSt3__110shared_ptrIN3sdc4core9JsonValueEEENS1_12basic_stringIcNS1_11char_traitsIcEENS1_9allocatorIcEEEEE5errorEv, symObjAddr: 0x203C, symBinAddr: 0xE0CC, symSize: 0x12C }
  - { offsetInCU: 0x10C71, offset: 0x8A280, size: 0x8, addend: 0x0, symName: '-[SDCParserDeserializer updateParser:fromJSONString:error:]', symObjAddr: 0xD48, symBinAddr: 0xD104, symSize: 0x440 }
  - { offsetInCU: 0x118E1, offset: 0x8AEF0, size: 0x8, addend: 0x0, symName: __ZN3sdc18ParserDeserializer20updateParserFromJsonENSt3__110shared_ptrINS_6ParserEEENS2_INS_4core9JsonValueEEE, symObjAddr: 0x1188, symBinAddr: 0xD544, symSize: 0x12C }
  - { offsetInCU: 0x11CC0, offset: 0x8B2CF, size: 0x8, addend: 0x0, symName: __ZNSt3__110shared_ptrIN3sdc4core20DataCaptureComponentEED1B8ue170006Ev, symObjAddr: 0x1920, symBinAddr: 0xDC68, symSize: 0x68 }
  - { offsetInCU: 0x11D5E, offset: 0x8B36D, size: 0x8, addend: 0x0, symName: '+[SDCParserDeserializer parserDeserializer]', symObjAddr: 0x12B4, symBinAddr: 0xD670, symSize: 0x14 }
  - { offsetInCU: 0x12024, offset: 0x8B633, size: 0x8, addend: 0x0, symName: '-[SDCParserDeserializer setDelegate:]', symObjAddr: 0x12C8, symBinAddr: 0xD684, symSize: 0x250 }
  - { offsetInCU: 0x1280A, offset: 0x8BE19, size: 0x8, addend: 0x0, symName: '-[SDCParserDeserializer warnings]', symObjAddr: 0x1518, symBinAddr: 0xD8D4, symSize: 0x10C }
  - { offsetInCU: 0x12D5A, offset: 0x8C369, size: 0x8, addend: 0x0, symName: '___33-[SDCParserDeserializer warnings]_block_invoke', symObjAddr: 0x1624, symBinAddr: 0xD9E0, symSize: 0x8 }
  - { offsetInCU: 0x12DAB, offset: 0x8C3BA, size: 0x8, addend: 0x0, symName: '-[SDCParserDeserializer delegate]', symObjAddr: 0x16A0, symBinAddr: 0xD9E8, symSize: 0x18 }
  - { offsetInCU: 0x12FF8, offset: 0x8C607, size: 0x8, addend: 0x0, symName: '-[SDCParserDeserializer .cxx_destruct]', symObjAddr: 0x16B8, symBinAddr: 0xDA00, symSize: 0x178 }
  - { offsetInCU: 0x13623, offset: 0x8CC32, size: 0x8, addend: 0x0, symName: '-[SDCParserDeserializer .cxx_construct]', symObjAddr: 0x1830, symBinAddr: 0xDB78, symSize: 0xB0 }
  - { offsetInCU: 0x1389B, offset: 0x8CEAA, size: 0x8, addend: 0x0, symName: __ZNSt3__16vectorINS_10shared_ptrIN3sdc4core31ParserDeserializerListenerProxyEEENS_9allocatorIS5_EEE7reserveEm, symObjAddr: 0x2AA4, symBinAddr: 0xEB2C, symSize: 0x110 }
  - { offsetInCU: 0x13D3F, offset: 0x8D34E, size: 0x8, addend: 0x0, symName: __ZNKSt3__16vectorINS_10shared_ptrIN3sdc4core31ParserDeserializerListenerProxyEEENS_9allocatorIS5_EEE20__throw_length_errorB8ue170006Ev, symObjAddr: 0x2BB4, symBinAddr: 0xEC3C, symSize: 0x14 }
  - { offsetInCU: 0x13D51, offset: 0x8D360, size: 0x8, addend: 0x0, symName: '-[SDCParserDeserializer .cxx_construct].cold.1', symObjAddr: 0x2BC8, symBinAddr: 0xE5370, symSize: 0x88 }
  - { offsetInCU: 0x13F96, offset: 0x8D5A5, size: 0x8, addend: 0x0, symName: __ZNSt3__120__shared_ptr_emplaceIN3sdc18ParserDeserializerENS_9allocatorIS2_EEED1Ev, symObjAddr: 0x18E0, symBinAddr: 0xDC28, symSize: 0x10 }
  - { offsetInCU: 0x13FB9, offset: 0x8D5C8, size: 0x8, addend: 0x0, symName: __ZNSt3__120__shared_ptr_emplaceIN3sdc18ParserDeserializerENS_9allocatorIS2_EEED1Ev, symObjAddr: 0x18E0, symBinAddr: 0xDC28, symSize: 0x10 }
  - { offsetInCU: 0x13FF3, offset: 0x8D602, size: 0x8, addend: 0x0, symName: __ZNSt3__120__shared_ptr_emplaceIN3sdc18ParserDeserializerENS_9allocatorIS2_EEED0Ev, symObjAddr: 0x18F0, symBinAddr: 0xDC38, symSize: 0x20 }
  - { offsetInCU: 0x1405D, offset: 0x8D66C, size: 0x8, addend: 0x0, symName: __ZNSt3__120__shared_ptr_emplaceIN3sdc18ParserDeserializerENS_9allocatorIS2_EEE16__on_zero_sharedEv, symObjAddr: 0x1910, symBinAddr: 0xDC58, symSize: 0xC }
  - { offsetInCU: 0x140E8, offset: 0x8D6F7, size: 0x8, addend: 0x0, symName: __ZNSt3__120__shared_ptr_emplaceIN3sdc18ParserDeserializerENS_9allocatorIS2_EEE21__on_zero_shared_weakEv, symObjAddr: 0x191C, symBinAddr: 0xDC64, symSize: 0x4 }
  - { offsetInCU: 0x1411B, offset: 0x8D72A, size: 0x8, addend: 0x0, symName: __ZNSt3__120__shared_ptr_emplaceIN3sdc18ParserDeserializerENS_9allocatorIS2_EEE21__on_zero_shared_weakEv, symObjAddr: 0x191C, symBinAddr: 0xDC64, symSize: 0x4 }
  - { offsetInCU: 0x14140, offset: 0x8D74F, size: 0x8, addend: 0x0, symName: __ZNSt3__120__shared_ptr_emplaceIN3sdc18ParserDeserializerENS_9allocatorIS2_EEE21__on_zero_shared_weakEv, symObjAddr: 0x191C, symBinAddr: 0xDC64, symSize: 0x4 }
  - { offsetInCU: 0x14165, offset: 0x8D774, size: 0x8, addend: 0x0, symName: __ZNSt3__120__shared_ptr_emplaceIN3sdc18ParserDeserializerENS_9allocatorIS2_EEE21__on_zero_shared_weakEv, symObjAddr: 0x191C, symBinAddr: 0xDC64, symSize: 0x4 }
  - { offsetInCU: 0x14195, offset: 0x8D7A4, size: 0x8, addend: 0x0, symName: __ZNSt3__120__shared_ptr_emplaceIN3sdc18ParserDeserializerENS_9allocatorIS2_EEE21__on_zero_shared_weakEv, symObjAddr: 0x191C, symBinAddr: 0xDC64, symSize: 0x4 }
  - { offsetInCU: 0x141BF, offset: 0x8D7CE, size: 0x8, addend: 0x0, symName: __ZNSt3__120__shared_ptr_emplaceIN3sdc18ParserDeserializerENS_9allocatorIS2_EEE21__on_zero_shared_weakEv, symObjAddr: 0x191C, symBinAddr: 0xDC64, symSize: 0x4 }
  - { offsetInCU: 0x142E8, offset: 0x8D8F7, size: 0x8, addend: 0x0, symName: __ZNSt3__120__shared_ptr_emplaceIN12_GLOBAL__N_128ParserDeserializerHelperImplENS_9allocatorIS2_EEED1Ev, symObjAddr: 0x1C40, symBinAddr: 0xDCD0, symSize: 0x10 }
  - { offsetInCU: 0x1430B, offset: 0x8D91A, size: 0x8, addend: 0x0, symName: __ZNSt3__120__shared_ptr_emplaceIN12_GLOBAL__N_128ParserDeserializerHelperImplENS_9allocatorIS2_EEED1Ev, symObjAddr: 0x1C40, symBinAddr: 0xDCD0, symSize: 0x10 }
  - { offsetInCU: 0x14345, offset: 0x8D954, size: 0x8, addend: 0x0, symName: __ZNSt3__120__shared_ptr_emplaceIN12_GLOBAL__N_128ParserDeserializerHelperImplENS_9allocatorIS2_EEED0Ev, symObjAddr: 0x1C50, symBinAddr: 0xDCE0, symSize: 0x20 }
  - { offsetInCU: 0x143AF, offset: 0x8D9BE, size: 0x8, addend: 0x0, symName: __ZNSt3__120__shared_ptr_emplaceIN12_GLOBAL__N_128ParserDeserializerHelperImplENS_9allocatorIS2_EEE16__on_zero_sharedEv, symObjAddr: 0x1C70, symBinAddr: 0xDD00, symSize: 0xC }
  - { offsetInCU: 0x1443A, offset: 0x8DA49, size: 0x8, addend: 0x0, symName: __ZNSt3__120__shared_ptr_emplaceIN12_GLOBAL__N_128ParserDeserializerHelperImplENS_9allocatorIS2_EEE21__on_zero_shared_weakEv, symObjAddr: 0x1C7C, symBinAddr: 0xDD0C, symSize: 0x4 }
  - { offsetInCU: 0x1446D, offset: 0x8DA7C, size: 0x8, addend: 0x0, symName: __ZNSt3__120__shared_ptr_emplaceIN12_GLOBAL__N_128ParserDeserializerHelperImplENS_9allocatorIS2_EEE21__on_zero_shared_weakEv, symObjAddr: 0x1C7C, symBinAddr: 0xDD0C, symSize: 0x4 }
  - { offsetInCU: 0x14492, offset: 0x8DAA1, size: 0x8, addend: 0x0, symName: __ZNSt3__120__shared_ptr_emplaceIN12_GLOBAL__N_128ParserDeserializerHelperImplENS_9allocatorIS2_EEE21__on_zero_shared_weakEv, symObjAddr: 0x1C7C, symBinAddr: 0xDD0C, symSize: 0x4 }
  - { offsetInCU: 0x144B7, offset: 0x8DAC6, size: 0x8, addend: 0x0, symName: __ZNSt3__120__shared_ptr_emplaceIN12_GLOBAL__N_128ParserDeserializerHelperImplENS_9allocatorIS2_EEE21__on_zero_shared_weakEv, symObjAddr: 0x1C7C, symBinAddr: 0xDD0C, symSize: 0x4 }
  - { offsetInCU: 0x144E6, offset: 0x8DAF5, size: 0x8, addend: 0x0, symName: __ZNSt3__120__shared_ptr_emplaceIN12_GLOBAL__N_128ParserDeserializerHelperImplENS_9allocatorIS2_EEE21__on_zero_shared_weakEv, symObjAddr: 0x1C7C, symBinAddr: 0xDD0C, symSize: 0x4 }
  - { offsetInCU: 0x1450F, offset: 0x8DB1E, size: 0x8, addend: 0x0, symName: __ZNSt3__120__shared_ptr_emplaceIN12_GLOBAL__N_128ParserDeserializerHelperImplENS_9allocatorIS2_EEE21__on_zero_shared_weakEv, symObjAddr: 0x1C7C, symBinAddr: 0xDD0C, symSize: 0x4 }
  - { offsetInCU: 0x1453C, offset: 0x8DB4B, size: 0x8, addend: 0x0, symName: __ZN12_GLOBAL__N_128ParserDeserializerHelperImplD1Ev, symObjAddr: 0x1C80, symBinAddr: 0xDD10, symSize: 0x4 }
  - { offsetInCU: 0x14567, offset: 0x8DB76, size: 0x8, addend: 0x0, symName: __ZN12_GLOBAL__N_128ParserDeserializerHelperImplD0Ev, symObjAddr: 0x1C84, symBinAddr: 0xDD14, symSize: 0x4 }
  - { offsetInCU: 0x14597, offset: 0x8DBA6, size: 0x8, addend: 0x0, symName: __ZN12_GLOBAL__N_128ParserDeserializerHelperImpl12createParserERKNSt3__110shared_ptrIN3sdc4core18DataCaptureContextEEENS3_16ParserDataFormatE, symObjAddr: 0x1C88, symBinAddr: 0xDD18, symSize: 0x1E8 }
  - { offsetInCU: 0x148BC, offset: 0x8DECB, size: 0x8, addend: 0x0, symName: __ZN12_GLOBAL__N_128ParserDeserializerHelperImpl20updateParserFromJsonERKNSt3__110shared_ptrIN3sdc6ParserEEERKNS2_INS3_4core9JsonValueEEE, symObjAddr: 0x1E70, symBinAddr: 0xDF00, symSize: 0x4 }
  - { offsetInCU: 0x14A8D, offset: 0x8E09C, size: 0x8, addend: 0x0, symName: __ZZN6djinni18get_cpp_proxy_implI21SDCDataCaptureContextN3sdc4core18DataCaptureContextEEEPT_RKNSt3__110shared_ptrIT0_EEENUlRKNS8_IvEEE_8__invokeESF_, symObjAddr: 0x1F5C, symBinAddr: 0xDFEC, symSize: 0xE0 }
  - { offsetInCU: 0x14D3E, offset: 0x8E34D, size: 0x8, addend: 0x0, symName: __ZZN6djinni18get_cpp_proxy_implI21SDCDataCaptureContextN3sdc4core18DataCaptureContextEEEPT_RKNSt3__110shared_ptrIT0_EEENUlRKNS8_IvEEE_8__invokeESF_.cold.1, symObjAddr: 0x2C80, symBinAddr: 0xE53F8, symSize: 0x30 }
  - { offsetInCU: 0x15239, offset: 0x8E848, size: 0x8, addend: 0x0, symName: __ZZN6djinniL14get_objc_proxyIN3sdc4core31ParserDeserializerListenerProxyEU40objcproto29SDCParserDeserializerDelegate11objc_objectEENSt3__110shared_ptrIT_EEPT0_ENUlRU8__strongKP11objc_objectE_8__invokeESE_, symObjAddr: 0x2168, symBinAddr: 0xE1F8, symSize: 0x7C }
  - { offsetInCU: 0x155A4, offset: 0x8EBB3, size: 0x8, addend: 0x0, symName: __ZN11proxy_cache13ListenerProxyIU8__strongPU40objcproto29SDCParserDeserializerDelegate11objc_objectN3sdc26ParserDeserializerListenerEEC2ES2_, symObjAddr: 0x2288, symBinAddr: 0xE318, symSize: 0xC4 }
  - { offsetInCU: 0x157AC, offset: 0x8EDBB, size: 0x8, addend: 0x0, symName: __ZNSt3__120__shared_ptr_emplaceIN3sdc4core31ParserDeserializerListenerProxyENS_9allocatorIS3_EEED1Ev, symObjAddr: 0x21E4, symBinAddr: 0xE274, symSize: 0x10 }
  - { offsetInCU: 0x157CF, offset: 0x8EDDE, size: 0x8, addend: 0x0, symName: __ZNSt3__120__shared_ptr_emplaceIN3sdc4core31ParserDeserializerListenerProxyENS_9allocatorIS3_EEED1Ev, symObjAddr: 0x21E4, symBinAddr: 0xE274, symSize: 0x10 }
  - { offsetInCU: 0x15809, offset: 0x8EE18, size: 0x8, addend: 0x0, symName: __ZNSt3__120__shared_ptr_emplaceIN3sdc4core31ParserDeserializerListenerProxyENS_9allocatorIS3_EEED0Ev, symObjAddr: 0x21F4, symBinAddr: 0xE284, symSize: 0x20 }
  - { offsetInCU: 0x158E1, offset: 0x8EEF0, size: 0x8, addend: 0x0, symName: __ZNSt3__120__shared_ptr_emplaceIN3sdc4core31ParserDeserializerListenerProxyENS_9allocatorIS3_EEE16__on_zero_sharedEv, symObjAddr: 0x2214, symBinAddr: 0xE2A4, symSize: 0x70 }
  - { offsetInCU: 0x15A10, offset: 0x8F01F, size: 0x8, addend: 0x0, symName: __ZN6djinni10ProxyCacheINS_20ObjcProxyCacheTraitsEE6HandleIU6__weakPU40objcproto29SDCParserDeserializerDelegate11objc_objectU8__strongS5_ED2Ev, symObjAddr: 0x2614, symBinAddr: 0xE69C, symSize: 0xF8 }
  - { offsetInCU: 0x15B36, offset: 0x8F145, size: 0x8, addend: 0x0, symName: __ZNSt3__120__shared_ptr_emplaceIN3sdc4core31ParserDeserializerListenerProxyENS_9allocatorIS3_EEE21__on_zero_shared_weakEv, symObjAddr: 0x2284, symBinAddr: 0xE314, symSize: 0x4 }
  - { offsetInCU: 0x15B69, offset: 0x8F178, size: 0x8, addend: 0x0, symName: __ZNSt3__120__shared_ptr_emplaceIN3sdc4core31ParserDeserializerListenerProxyENS_9allocatorIS3_EEE21__on_zero_shared_weakEv, symObjAddr: 0x2284, symBinAddr: 0xE314, symSize: 0x4 }
  - { offsetInCU: 0x15B8E, offset: 0x8F19D, size: 0x8, addend: 0x0, symName: __ZNSt3__120__shared_ptr_emplaceIN3sdc4core31ParserDeserializerListenerProxyENS_9allocatorIS3_EEE21__on_zero_shared_weakEv, symObjAddr: 0x2284, symBinAddr: 0xE314, symSize: 0x4 }
  - { offsetInCU: 0x15BB3, offset: 0x8F1C2, size: 0x8, addend: 0x0, symName: __ZNSt3__120__shared_ptr_emplaceIN3sdc4core31ParserDeserializerListenerProxyENS_9allocatorIS3_EEE21__on_zero_shared_weakEv, symObjAddr: 0x2284, symBinAddr: 0xE314, symSize: 0x4 }
  - { offsetInCU: 0x15BE3, offset: 0x8F1F2, size: 0x8, addend: 0x0, symName: __ZNSt3__120__shared_ptr_emplaceIN3sdc4core31ParserDeserializerListenerProxyENS_9allocatorIS3_EEE21__on_zero_shared_weakEv, symObjAddr: 0x2284, symBinAddr: 0xE314, symSize: 0x4 }
  - { offsetInCU: 0x15C0D, offset: 0x8F21C, size: 0x8, addend: 0x0, symName: __ZNSt3__120__shared_ptr_emplaceIN3sdc4core31ParserDeserializerListenerProxyENS_9allocatorIS3_EEE21__on_zero_shared_weakEv, symObjAddr: 0x2284, symBinAddr: 0xE314, symSize: 0x4 }
  - { offsetInCU: 0x15D51, offset: 0x8F360, size: 0x8, addend: 0x0, symName: __ZN3sdc4core31ParserDeserializerListenerProxyD1Ev, symObjAddr: 0x234C, symBinAddr: 0xE3DC, symSize: 0x78 }
  - { offsetInCU: 0x15E63, offset: 0x8F472, size: 0x8, addend: 0x0, symName: __ZN3sdc4core31ParserDeserializerListenerProxyD0Ev, symObjAddr: 0x23C4, symBinAddr: 0xE454, symSize: 0x78 }
  - { offsetInCU: 0x15FB2, offset: 0x8F5C1, size: 0x8, addend: 0x0, symName: __ZN3sdc4core31ParserDeserializerListenerProxy30onParserDeserializationStartedERKNSt3__110shared_ptrINS_18ParserDeserializerEEERKNS3_INS_6ParserEEERKNS3_INS0_9JsonValueEEE, symObjAddr: 0x243C, symBinAddr: 0xE4CC, symSize: 0xE8 }
  - { offsetInCU: 0x160EE, offset: 0x8F6FD, size: 0x8, addend: 0x0, symName: __ZN3sdc4core31ParserDeserializerListenerProxy31onParserDeserializationFinishedERKNSt3__110shared_ptrINS_18ParserDeserializerEEERKNS3_INS_6ParserEEERKNS3_INS0_9JsonValueEEE, symObjAddr: 0x2524, symBinAddr: 0xE5B4, symSize: 0xE8 }
  - { offsetInCU: 0x1622A, offset: 0x8F839, size: 0x8, addend: 0x0, symName: __ZN11proxy_cache13ListenerProxyIU8__strongPU40objcproto29SDCParserDeserializerDelegate11objc_objectN3sdc26ParserDeserializerListenerEED1Ev, symObjAddr: 0x260C, symBinAddr: 0xE5368, symSize: 0x4 }
  - { offsetInCU: 0x16255, offset: 0x8F864, size: 0x8, addend: 0x0, symName: __ZN11proxy_cache13ListenerProxyIU8__strongPU40objcproto29SDCParserDeserializerDelegate11objc_objectN3sdc26ParserDeserializerListenerEED0Ev, symObjAddr: 0x2610, symBinAddr: 0xE536C, symSize: 0x4 }
  - { offsetInCU: 0x163EC, offset: 0x8F9FB, size: 0x8, addend: 0x0, symName: __ZZN6djinni18get_cpp_proxy_implI21SDCParserDeserializerN3sdc18ParserDeserializerEEEPT_RKNSt3__110shared_ptrIT0_EEENUlRKNS7_IvEEE_8__invokeESE_, symObjAddr: 0x27F4, symBinAddr: 0xE87C, symSize: 0xE0 }
  - { offsetInCU: 0x1669D, offset: 0x8FCAC, size: 0x8, addend: 0x0, symName: __ZZN6djinni18get_cpp_proxy_implI21SDCParserDeserializerN3sdc18ParserDeserializerEEEPT_RKNSt3__110shared_ptrIT0_EEENUlRKNS7_IvEEE_8__invokeESE_.cold.1, symObjAddr: 0x2CB0, symBinAddr: 0xE5428, symSize: 0x30 }
  - { offsetInCU: 0x169FC, offset: 0x9000B, size: 0x8, addend: 0x0, symName: __ZNKSt3__16vectorINS_10shared_ptrIN3sdc4core31ParserDeserializerListenerProxyEEENS_9allocatorIS5_EEE20__throw_length_errorB8ue170006Ev, symObjAddr: 0x2BB4, symBinAddr: 0xEC3C, symSize: 0x14 }
  - { offsetInCU: 0x16A26, offset: 0x90035, size: 0x8, addend: 0x0, symName: '-[SDCParserDeserializer .cxx_construct].cold.1', symObjAddr: 0x2BC8, symBinAddr: 0xE5370, symSize: 0x88 }
  - { offsetInCU: 0x16A31, offset: 0x90040, size: 0x8, addend: 0x0, symName: _OUTLINED_FUNCTION_0, symObjAddr: 0x2CE0, symBinAddr: 0xEC50, symSize: 0x10 }
  - { offsetInCU: 0x16A49, offset: 0x90058, size: 0x8, addend: 0x0, symName: _OUTLINED_FUNCTION_1, symObjAddr: 0x2CF0, symBinAddr: 0xEC60, symSize: 0x10 }
  - { offsetInCU: 0x16A61, offset: 0x90070, size: 0x8, addend: 0x0, symName: _OUTLINED_FUNCTION_2, symObjAddr: 0x2D00, symBinAddr: 0xEC70, symSize: 0x8 }
  - { offsetInCU: 0x16A79, offset: 0x90088, size: 0x8, addend: 0x0, symName: _OUTLINED_FUNCTION_3, symObjAddr: 0x2D08, symBinAddr: 0xEC78, symSize: 0x8 }
  - { offsetInCU: 0x40, offset: 0x901CE, size: 0x8, addend: 0x0, symName: _SDCParserErrorDomain, symObjAddr: 0x1B80, symBinAddr: 0x1048B8, symSize: 0x0 }
  - { offsetInCU: 0x93, offset: 0x90221, size: 0x8, addend: 0x0, symName: _SDCParserIssueErrorDomain, symObjAddr: 0x1B88, symBinAddr: 0x1048C0, symSize: 0x0 }
  - { offsetInCU: 0xA9, offset: 0x90237, size: 0x8, addend: 0x0, symName: _SDCParserIssueStartingCharactersErrorUserInfoKey, symObjAddr: 0x1B90, symBinAddr: 0x1048C8, symSize: 0x0 }
  - { offsetInCU: 0xC4, offset: 0x90252, size: 0x8, addend: 0x0, symName: _SDCParserIssueVersionErrorUserInfoKey, symObjAddr: 0x1B98, symBinAddr: 0x1048D0, symSize: 0x0 }
  - { offsetInCU: 0xDA, offset: 0x90268, size: 0x8, addend: 0x0, symName: _SDCParserIssueMinimalVersionErrorUserInfoKey, symObjAddr: 0x1BA0, symBinAddr: 0x1048D8, symSize: 0x0 }
  - { offsetInCU: 0xF0, offset: 0x9027E, size: 0x8, addend: 0x0, symName: _SDCParserIssueElementNameErrorUserInfoKey, symObjAddr: 0x1BA8, symBinAddr: 0x1048E0, symSize: 0x0 }
  - { offsetInCU: 0x106, offset: 0x90294, size: 0x8, addend: 0x0, symName: _SDCParserIssueStringErrorUserInfoKey, symObjAddr: 0x1BB0, symBinAddr: 0x1048E8, symSize: 0x0 }
  - { offsetInCU: 0x11C, offset: 0x902AA, size: 0x8, addend: 0x0, symName: _SDCParserIssueLengthErrorUserInfoKey, symObjAddr: 0x1BB8, symBinAddr: 0x1048F0, symSize: 0x0 }
  - { offsetInCU: 0x132, offset: 0x902C0, size: 0x8, addend: 0x0, symName: _SDCParserIssueCharsetErrorUserInfoKey, symObjAddr: 0x1BC0, symBinAddr: 0x1048F8, symSize: 0x0 }
  - { offsetInCU: 0x96AA, offset: 0x99838, size: 0x8, addend: 0x0, symName: '-[SDCParserIssue initWithCpp:]', symObjAddr: 0xA8, symBinAddr: 0xEC80, symSize: 0xD0 }
  - { offsetInCU: 0x993F, offset: 0x99ACD, size: 0x8, addend: 0x0, symName: '-[SDCParserIssue typeErasedCppImpl]', symObjAddr: 0x178, symBinAddr: 0xED50, symSize: 0x24 }
  - { offsetInCU: 0x9976, offset: 0x99B04, size: 0x8, addend: 0x0, symName: '-[SDCParserIssue typeErasedCppImpl]', symObjAddr: 0x178, symBinAddr: 0xED50, symSize: 0x24 }
  - { offsetInCU: 0x999F, offset: 0x99B2D, size: 0x8, addend: 0x0, symName: '-[SDCParserIssue typeErasedCppImpl]', symObjAddr: 0x178, symBinAddr: 0xED50, symSize: 0x24 }
  - { offsetInCU: 0x9A69, offset: 0x99BF7, size: 0x8, addend: 0x0, symName: '-[SDCParserIssue code]', symObjAddr: 0x19C, symBinAddr: 0xED74, symSize: 0xB4 }
  - { offsetInCU: 0x9AA2, offset: 0x99C30, size: 0x8, addend: 0x0, symName: '-[SDCParserIssue code]', symObjAddr: 0x19C, symBinAddr: 0xED74, symSize: 0xB4 }
  - { offsetInCU: 0x9AEB, offset: 0x99C79, size: 0x8, addend: 0x0, symName: '-[SDCParserIssue message]', symObjAddr: 0x250, symBinAddr: 0xEE28, symSize: 0x8 }
  - { offsetInCU: 0x9B24, offset: 0x99CB2, size: 0x8, addend: 0x0, symName: '-[SDCParserIssue message]', symObjAddr: 0x250, symBinAddr: 0xEE28, symSize: 0x8 }
  - { offsetInCU: 0x9C2F, offset: 0x99DBD, size: 0x8, addend: 0x0, symName: '-[SDCParserIssue additionalInfo]', symObjAddr: 0x258, symBinAddr: 0xEE30, symSize: 0x484 }
  - { offsetInCU: 0xCAD5, offset: 0x9CC63, size: 0x8, addend: 0x0, symName: '-[SDCParserIssue .cxx_destruct]', symObjAddr: 0x920, symBinAddr: 0xF2B4, symSize: 0xE4 }
  - { offsetInCU: 0xCDE5, offset: 0x9CF73, size: 0x8, addend: 0x0, symName: '-[SDCParserIssue .cxx_construct]', symObjAddr: 0xA04, symBinAddr: 0xF398, symSize: 0x48 }
...
